; Function Attrs: mustprogress nounwind willreturn memory(argmem: readwrite, inaccessiblemem: readwrite) uwtable
define internal void @js_sab_free(ptr nocapture readnone %0, ptr nocapture noundef %1) #13 {
  %3 = getelementptr i8, ptr %1, i64 -8
  %4 = atomicrmw add ptr %3, i32 -1 seq_cst, align 4
  %5 = icmp eq i32 %4, 1
  br i1 %5, label %6, label %7

6:                                                ; preds = %2
  tail call void @free(ptr noundef %3) #29
  br label %7

7:                                                ; preds = %6, %2
  ret void
}